target datalayout = "e-m:e-p270:32:32-p271:32:32-p272:64:64-i64:64-i128:128-f80:128-n8:16:32:64-S128"
target triple = "x86_64-unknown-linux-gnu"

%"class.arrow::compute::SwissTable" = type { i32, i32, i32, %"class.std::shared_ptr", %"class.std::shared_ptr", i64, ptr }
%"class.std::shared_ptr" = type { %"class.std::__shared_ptr" }
%"class.std::__shared_ptr" = type { ptr, %"class.std::__shared_count" }
%"class.std::__shared_count" = type { ptr }
%"class.arrow::Buffer" = type { ptr, i8, i8, ptr, i64, i64, i8, %"class.std::shared_ptr", %"class.std::shared_ptr.2" }
%"class.std::shared_ptr.2" = type { %"class.std::__shared_ptr.3" }
%"class.std::__shared_ptr.3" = type { ptr, %"class.std::__shared_count" }

; Function Attrs: mustprogress nounwind uwtable
define linkonce_odr noundef ptr @_ZNKSt12__shared_ptrIN5arrow6BufferELN9__gnu_cxx12_Lock_policyE2EE3getEv(ptr noundef nonnull align 8 dereferenceable(16) %this) #1 comdat align 2 {
entry:
  %this.addr = alloca ptr, align 8
  store ptr %this, ptr %this.addr, align 8
  %this1 = load ptr, ptr %this.addr, align 8
  %_M_ptr = getelementptr inbounds %"class.std::__shared_ptr", ptr %this1, i32 0, i32 0
  %0 = load ptr, ptr %_M_ptr, align 8
  ret ptr %0
}

; Function Attrs: mustprogress nounwind uwtable
define linkonce_odr noundef ptr @_ZNKSt19__shared_ptr_accessIN5arrow6BufferELN9__gnu_cxx12_Lock_policyE2ELb0ELb0EE6_M_getEv(ptr noundef nonnull align 1 dereferenceable(1) %this) #1 comdat align 2 {
entry:
  %this.addr = alloca ptr, align 8
  store ptr %this, ptr %this.addr, align 8
  %this1 = load ptr, ptr %this.addr, align 8
  %call = call noundef ptr @_ZNKSt12__shared_ptrIN5arrow6BufferELN9__gnu_cxx12_Lock_policyE2EE3getEv(ptr noundef nonnull align 8 dereferenceable(16) %this1) #12
  ret ptr %call
}

; Function Attrs: mustprogress nounwind uwtable
define linkonce_odr noundef ptr @_ZN5arrow6Buffer12mutable_dataEv(ptr noundef nonnull align 8 dereferenceable(80) %this) #1 comdat align 2 {
entry:
  %this.addr = alloca ptr, align 8
  store ptr %this, ptr %this.addr, align 8
  %this1 = load ptr, ptr %this.addr, align 8
  %is_cpu_ = getelementptr inbounds %"class.arrow::Buffer", ptr %this1, i32 0, i32 2
  %0 = load i8, ptr %is_cpu_, align 1
  %tobool = trunc i8 %0 to i1
  br i1 %tobool, label %land.rhs, label %land.end

land.rhs:                                         ; preds = %entry
  %is_mutable_ = getelementptr inbounds %"class.arrow::Buffer", ptr %this1, i32 0, i32 1
  %1 = load i8, ptr %is_mutable_, align 8
  %tobool2 = trunc i8 %1 to i1
  br label %land.end

land.end:                                         ; preds = %land.rhs, %entry
  %2 = phi i1 [ false, %entry ], [ %tobool2, %land.rhs ]
  %lnot = xor i1 %2, true
  %lnot3 = xor i1 %lnot, true
  br i1 %lnot3, label %cond.true, label %cond.false

cond.true:                                        ; preds = %land.end
  %data_ = getelementptr inbounds %"class.arrow::Buffer", ptr %this1, i32 0, i32 3
  %3 = load ptr, ptr %data_, align 8
  br label %cond.end

cond.false:                                       ; preds = %land.end
  br label %cond.end

cond.end:                                         ; preds = %cond.false, %cond.true
  %cond = phi ptr [ %3, %cond.true ], [ null, %cond.false ]
  ret ptr %cond
}

; Function Attrs: mustprogress nounwind uwtable
define linkonce_odr noundef ptr @_ZNKSt19__shared_ptr_accessIN5arrow6BufferELN9__gnu_cxx12_Lock_policyE2ELb0ELb0EEptEv(ptr noundef nonnull align 1 dereferenceable(1) %this) #1 comdat align 2 {
entry:
  %this.addr = alloca ptr, align 8
  store ptr %this, ptr %this.addr, align 8
  %this1 = load ptr, ptr %this.addr, align 8
  %call = call noundef ptr @_ZNKSt19__shared_ptr_accessIN5arrow6BufferELN9__gnu_cxx12_Lock_policyE2ELb0ELb0EE6_M_getEv(ptr noundef nonnull align 1 dereferenceable(1) %this1) #12
  ret ptr %call
}

; Function Attrs: mustprogress nounwind uwtable
define linkonce_odr noundef i32 @_ZN5arrow7compute10SwissTable32num_groupid_bits_from_log_blocksEi(i32 noundef %log_blocks) #1 comdat align 2 {
entry:
  %log_blocks.addr = alloca i32, align 4
  %required_bits = alloca i32, align 4
  store i32 %log_blocks, ptr %log_blocks.addr, align 4
  %0 = load i32, ptr %log_blocks.addr, align 4
  %add = add nsw i32 %0, 3
  store i32 %add, ptr %required_bits, align 4
  %1 = load i32, ptr %required_bits, align 4
  %cmp = icmp sle i32 %1, 8
  br i1 %cmp, label %cond.true, label %cond.false

cond.true:                                        ; preds = %entry
  br label %cond.end6

cond.false:                                       ; preds = %entry
  %2 = load i32, ptr %required_bits, align 4
  %cmp1 = icmp sle i32 %2, 16
  br i1 %cmp1, label %cond.true2, label %cond.false3

cond.true2:                                       ; preds = %cond.false
  br label %cond.end

cond.false3:                                      ; preds = %cond.false
  %3 = load i32, ptr %required_bits, align 4
  %cmp4 = icmp sle i32 %3, 32
  %cond = select i1 %cmp4, i32 32, i32 64
  br label %cond.end

cond.end:                                         ; preds = %cond.false3, %cond.true2
  %cond5 = phi i32 [ 16, %cond.true2 ], [ %cond, %cond.false3 ]
  br label %cond.end6

cond.end6:                                        ; preds = %cond.end, %cond.true
  %cond7 = phi i32 [ 8, %cond.true ], [ %cond5, %cond.end ]
  ret i32 %cond7
}

; Function Attrs: mustprogress uwtable
define void @_ZNK5arrow7compute10SwissTable26init_slot_ids_for_new_keysEjPKtPKjPj(ptr noundef nonnull align 8 dereferenceable(64) %this, i32 noundef %num_ids, ptr noundef %ids, ptr noundef %hashes, ptr noundef %slot_ids) #0 align 2 {
entry:
  %this.addr = alloca ptr, align 8
  %num_ids.addr = alloca i32, align 4
  %ids.addr = alloca ptr, align 8
  %hashes.addr = alloca ptr, align 8
  %slot_ids.addr = alloca ptr, align 8
  %num_groupid_bits = alloca i32, align 4
  %num_block_bytes = alloca i32, align 4
  %block = alloca i64, align 8
  %empty_slot = alloca i32, align 4
  %i = alloca i32, align 4
  %id = alloca i32, align 4
  %i8 = alloca i32, align 4
  %id12 = alloca i32, align 4
  %hash = alloca i32, align 4
  %iblock = alloca i32, align 4
  %block20 = alloca i64, align 8
  %empty_slot32 = alloca i32, align 4
  store ptr %this, ptr %this.addr, align 8
  store i32 %num_ids, ptr %num_ids.addr, align 4
  store ptr %ids, ptr %ids.addr, align 8
  store ptr %hashes, ptr %hashes.addr, align 8
  store ptr %slot_ids, ptr %slot_ids.addr, align 8
  %this1 = load ptr, ptr %this.addr, align 8
  %log_blocks_ = getelementptr inbounds %"class.arrow::compute::SwissTable", ptr %this1, i32 0, i32 1
  %0 = load i32, ptr %log_blocks_, align 4
  %call = call noundef i32 @_ZN5arrow7compute10SwissTable32num_groupid_bits_from_log_blocksEi(i32 noundef %0)
  store i32 %call, ptr %num_groupid_bits, align 4
  %1 = load i32, ptr %num_groupid_bits, align 4
  %add = add nsw i32 %1, 8
  store i32 %add, ptr %num_block_bytes, align 4
  %log_blocks_2 = getelementptr inbounds %"class.arrow::compute::SwissTable", ptr %this1, i32 0, i32 1
  %2 = load i32, ptr %log_blocks_2, align 4
  %cmp = icmp eq i32 %2, 0
  br i1 %cmp, label %if.then, label %if.else

if.then:                                          ; preds = %entry
  %blocks_ = getelementptr inbounds %"class.arrow::compute::SwissTable", ptr %this1, i32 0, i32 3
  %call3 = call noundef ptr @_ZNKSt19__shared_ptr_accessIN5arrow6BufferELN9__gnu_cxx12_Lock_policyE2ELb0ELb0EEptEv(ptr noundef nonnull align 1 dereferenceable(1) %blocks_) #12
  %call4 = call noundef ptr @_ZN5arrow6Buffer12mutable_dataEv(ptr noundef nonnull align 8 dereferenceable(80) %call3)
  %3 = load i64, ptr %call4, align 8
  store i64 %3, ptr %block, align 8
  %4 = load i64, ptr %block, align 8
  %and = and i64 %4, -9187201950435737472
  %5 = call i64 @llvm.ctpop.i64(i64 %and)
  %cast = trunc i64 %5 to i32
  %sub = sub nsw i32 8, %cast
  store i32 %sub, ptr %empty_slot, align 4
  store i32 0, ptr %i, align 4
  br label %for.cond

for.cond:                                         ; preds = %for.inc, %if.then
  %6 = load i32, ptr %i, align 4
  %7 = load i32, ptr %num_ids.addr, align 4
  %cmp5 = icmp ult i32 %6, %7
  br i1 %cmp5, label %for.body, label %for.end

for.body:                                         ; preds = %for.cond
  %8 = load ptr, ptr %ids.addr, align 8
  %9 = load i32, ptr %i, align 4
  %idxprom = zext i32 %9 to i64
  %arrayidx = getelementptr inbounds i16, ptr %8, i64 %idxprom
  %10 = load i16, ptr %arrayidx, align 2
  %conv = zext i16 %10 to i32
  store i32 %conv, ptr %id, align 4
  %11 = load i32, ptr %empty_slot, align 4
  %12 = load ptr, ptr %slot_ids.addr, align 8
  %13 = load i32, ptr %id, align 4
  %idxprom6 = sext i32 %13 to i64
  %arrayidx7 = getelementptr inbounds i32, ptr %12, i64 %idxprom6
  store i32 %11, ptr %arrayidx7, align 4
  br label %for.inc

for.inc:                                          ; preds = %for.body
  %14 = load i32, ptr %i, align 4
  %inc = add i32 %14, 1
  store i32 %inc, ptr %i, align 4
  br label %for.cond, !llvm.loop !49

for.end:                                          ; preds = %for.cond
  br label %if.end42

if.else:                                          ; preds = %entry
  store i32 0, ptr %i8, align 4
  br label %for.cond9

for.cond9:                                        ; preds = %for.inc39, %if.else
  %15 = load i32, ptr %i8, align 4
  %16 = load i32, ptr %num_ids.addr, align 4
  %cmp10 = icmp ult i32 %15, %16
  br i1 %cmp10, label %for.body11, label %for.end41

for.body11:                                       ; preds = %for.cond9
  %17 = load ptr, ptr %ids.addr, align 8
  %18 = load i32, ptr %i8, align 4
  %idxprom13 = zext i32 %18 to i64
  %arrayidx14 = getelementptr inbounds i16, ptr %17, i64 %idxprom13
  %19 = load i16, ptr %arrayidx14, align 2
  %conv15 = zext i16 %19 to i32
  store i32 %conv15, ptr %id12, align 4
  %20 = load ptr, ptr %hashes.addr, align 8
  %21 = load i32, ptr %id12, align 4
  %idxprom16 = sext i32 %21 to i64
  %arrayidx17 = getelementptr inbounds i32, ptr %20, i64 %idxprom16
  %22 = load i32, ptr %arrayidx17, align 4
  store i32 %22, ptr %hash, align 4
  %23 = load i32, ptr %hash, align 4
  %log_blocks_18 = getelementptr inbounds %"class.arrow::compute::SwissTable", ptr %this1, i32 0, i32 1
  %24 = load i32, ptr %log_blocks_18, align 4
  %sub19 = sub nsw i32 32, %24
  %shr = lshr i32 %23, %sub19
  store i32 %shr, ptr %iblock, align 4
  br label %for.cond21

for.cond21:                                       ; preds = %if.end, %for.body11
  %blocks_22 = getelementptr inbounds %"class.arrow::compute::SwissTable", ptr %this1, i32 0, i32 3
  %call23 = call noundef ptr @_ZNKSt19__shared_ptr_accessIN5arrow6BufferELN9__gnu_cxx12_Lock_policyE2ELb0ELb0EEptEv(ptr noundef nonnull align 1 dereferenceable(1) %blocks_22) #12
  %call24 = call noundef ptr @_ZN5arrow6Buffer12mutable_dataEv(ptr noundef nonnull align 8 dereferenceable(80) %call23)
  %25 = load i32, ptr %num_block_bytes, align 4
  %26 = load i32, ptr %iblock, align 4
  %mul = mul i32 %25, %26
  %idx.ext = zext i32 %mul to i64
  %add.ptr = getelementptr inbounds i8, ptr %call24, i64 %idx.ext
  %27 = load i64, ptr %add.ptr, align 8
  store i64 %27, ptr %block20, align 8
  %28 = load i64, ptr %block20, align 8
  %and25 = and i64 %28, -9187201950435737472
  store i64 %and25, ptr %block20, align 8
  %29 = load i64, ptr %block20, align 8
  %tobool = icmp ne i64 %29, 0
  br i1 %tobool, label %if.then26, label %if.end

if.then26:                                        ; preds = %for.cond21
  br label %for.end31

if.end:                                           ; preds = %for.cond21
  %30 = load i32, ptr %iblock, align 4
  %add27 = add i32 %30, 1
  %log_blocks_28 = getelementptr inbounds %"class.arrow::compute::SwissTable", ptr %this1, i32 0, i32 1
  %31 = load i32, ptr %log_blocks_28, align 4
  %shl = shl i32 1, %31
  %sub29 = sub nsw i32 %shl, 1
  %and30 = and i32 %add27, %sub29
  store i32 %and30, ptr %iblock, align 4
  br label %for.cond21, !llvm.loop !50

for.end31:                                        ; preds = %if.then26
  %32 = load i64, ptr %block20, align 8
  %33 = call i64 @llvm.ctpop.i64(i64 %32)
  %cast33 = trunc i64 %33 to i32
  %sub34 = sub nsw i32 8, %cast33
  store i32 %sub34, ptr %empty_slot32, align 4
  %34 = load i32, ptr %iblock, align 4
  %mul35 = mul i32 %34, 8
  %35 = load i32, ptr %empty_slot32, align 4
  %add36 = add i32 %mul35, %35
  %36 = load ptr, ptr %slot_ids.addr, align 8
  %37 = load i32, ptr %id12, align 4
  %idxprom37 = sext i32 %37 to i64
  %arrayidx38 = getelementptr inbounds i32, ptr %36, i64 %idxprom37
  store i32 %add36, ptr %arrayidx38, align 4
  br label %for.inc39

for.inc39:                                        ; preds = %for.end31
  %38 = load i32, ptr %i8, align 4
  %inc40 = add i32 %38, 1
  store i32 %inc40, ptr %i8, align 4
  br label %for.cond9, !llvm.loop !51

for.end41:                                        ; preds = %for.cond9
  br label %if.end42

if.end42:                                         ; preds = %for.end41, %for.end
  ret void
}