; Function Attrs: mustprogress nofree norecurse nosync nounwind memory(read, argmem: readwrite, inaccessiblemem: none) uwtable
define void @_ZNK5arrow7compute10SwissTable26init_slot_ids_for_new_keysEjPKtPKjPj(ptr nocapture noundef nonnull readonly align 8 dereferenceable(64) %this, i32 noundef %num_ids, ptr nocapture noundef readonly %ids, ptr nocapture noundef readonly %hashes, ptr nocapture noundef writeonly %slot_ids) local_unnamed_addr #3 align 2 {
entry:
  %log_blocks_ = getelementptr inbounds i8, ptr %this, i64 4
  %0 = load i32, ptr %log_blocks_, align 4
  %cmp.i = icmp slt i32 %0, 6
  %cmp1.i = icmp ult i32 %0, 14
  %cmp4.i = icmp slt i32 %0, 30
  %1 = select i1 %cmp4.i, i32 40, i32 72
  %2 = select i1 %cmp1.i, i32 24, i32 %1
  %add = select i1 %cmp.i, i32 16, i32 %2
  %cmp = icmp eq i32 %0, 0
  br i1 %cmp, label %if.then, label %for.cond9.preheader

for.cond9.preheader:                              ; preds = %entry
  %cmp1028.not = icmp eq i32 %num_ids, 0
  br i1 %cmp1028.not, label %if.end42, label %for.body11.lr.ph

for.body11.lr.ph:                                 ; preds = %for.cond9.preheader
  %blocks_22 = getelementptr inbounds i8, ptr %this, i64 16
  %wide.trip.count = zext i32 %num_ids to i64
  br label %for.body11

if.then:                                          ; preds = %entry
  %blocks_ = getelementptr inbounds i8, ptr %this, i64 16
  %3 = load ptr, ptr %blocks_, align 8
  %data_.i = getelementptr inbounds i8, ptr %3, i64 16
  %4 = load ptr, ptr %data_.i, align 8
  %5 = load i64, ptr %4, align 8
  %and = and i64 %5, -9187201950435737472
  %6 = tail call i64 @llvm.ctpop.i64(i64 %and), !range !19
  %cast = trunc i64 %6 to i32
  %sub = sub nuw nsw i32 8, %cast
  %cmp530.not = icmp eq i32 %num_ids, 0
  br i1 %cmp530.not, label %if.end42, label %for.body.preheader

for.body.preheader:                               ; preds = %if.then
  %wide.trip.count38 = zext i32 %num_ids to i64
  br label %for.body

for.body:                                         ; preds = %for.body.preheader, %for.body
  %indvars.iv35 = phi i64 [ 0, %for.body.preheader ], [ %indvars.iv.next36, %for.body ]
  %arrayidx = getelementptr inbounds i16, ptr %ids, i64 %indvars.iv35
  %7 = load i16, ptr %arrayidx, align 2
  %idxprom6 = zext i16 %7 to i64
  %arrayidx7 = getelementptr inbounds i32, ptr %slot_ids, i64 %idxprom6
  store i32 %sub, ptr %arrayidx7, align 4
  %indvars.iv.next36 = add nuw nsw i64 %indvars.iv35, 1
  %exitcond39.not = icmp eq i64 %indvars.iv.next36, %wide.trip.count38
  br i1 %exitcond39.not, label %if.end42, label %for.body, !llvm.loop !20

for.body11:                                       ; preds = %for.body11.lr.ph, %for.end31
  %indvars.iv = phi i64 [ 0, %for.body11.lr.ph ], [ %indvars.iv.next, %for.end31 ]
  %arrayidx14 = getelementptr inbounds i16, ptr %ids, i64 %indvars.iv
  %8 = load i16, ptr %arrayidx14, align 2
  %idxprom16 = zext i16 %8 to i64
  %arrayidx17 = getelementptr inbounds i32, ptr %hashes, i64 %idxprom16
  %9 = load i32, ptr %arrayidx17, align 4
  %10 = load i32, ptr %log_blocks_, align 4
  %sub19 = sub nsw i32 32, %10
  %shr = lshr i32 %9, %sub19
  %11 = load ptr, ptr %blocks_22, align 8
  %is_mutable_.i16 = getelementptr inbounds i8, ptr %11, i64 8
  %12 = load <2 x i8>, ptr %is_mutable_.i16, align 8
  %13 = trunc <2 x i8> %12 to <2 x i1>
  %14 = extractelement <2 x i1> %13, i64 0
  %15 = extractelement <2 x i1> %13, i64 1
  %16 = select i1 %15, i1 %14, i1 false
  %data_.i18 = getelementptr inbounds i8, ptr %11, i64 16
  %17 = load ptr, ptr %data_.i18, align 8
  %cond.i19 = select i1 %16, ptr %17, ptr null
  %mul21 = mul i32 %shr, %add
  %idx.ext22 = zext i32 %mul21 to i64
  %add.ptr23 = getelementptr inbounds i8, ptr %cond.i19, i64 %idx.ext22
  %18 = load i64, ptr %add.ptr23, align 8
  %and2524 = and i64 %18, -9187201950435737472
  %tobool.not25 = icmp eq i64 %and2524, 0
  br i1 %tobool.not25, label %if.end.lr.ph, label %for.end31

if.end.lr.ph:                                     ; preds = %for.body11
  %notmask = shl nsw i32 -1, %10
  %sub29 = xor i32 %notmask, -1
  br label %if.end

if.end:                                           ; preds = %if.end.lr.ph, %if.end
  %iblock.026 = phi i32 [ %shr, %if.end.lr.ph ], [ %and30, %if.end ]
  %add27 = add i32 %iblock.026, 1
  %and30 = and i32 %add27, %sub29
  %mul = mul i32 %and30, %add
  %idx.ext = zext i32 %mul to i64
  %add.ptr = getelementptr inbounds i8, ptr %cond.i19, i64 %idx.ext
  %19 = load i64, ptr %add.ptr, align 8
  %and25 = and i64 %19, -9187201950435737472
  %tobool.not = icmp eq i64 %and25, 0
  br i1 %tobool.not, label %if.end, label %for.end31, !llvm.loop !21

for.end31:                                        ; preds = %if.end, %for.body11
  %iblock.0.lcssa = phi i32 [ %shr, %for.body11 ], [ %and30, %if.end ]
  %and25.lcssa = phi i64 [ %and2524, %for.body11 ], [ %and25, %if.end ]
  %20 = tail call i64 @llvm.ctpop.i64(i64 %and25.lcssa), !range !19
  %cast33 = trunc i64 %20 to i32
  %mul35 = shl i32 %iblock.0.lcssa, 3
  %reass.sub = add i32 %mul35, 8
  %add36 = sub i32 %reass.sub, %cast33
  %arrayidx38 = getelementptr inbounds i32, ptr %slot_ids, i64 %idxprom16
  store i32 %add36, ptr %arrayidx38, align 4
  %indvars.iv.next = add nuw nsw i64 %indvars.iv, 1
  %exitcond.not = icmp eq i64 %indvars.iv.next, %wide.trip.count
  br i1 %exitcond.not, label %if.end42, label %for.body11, !llvm.loop !22

if.end42:                                         ; preds = %for.end31, %for.body, %for.cond9.preheader, %if.then
  ret void
}